(lp1
L32772L
aL32774L
aL32780L
aL32782L
aL18L
aL32787L
aL20L
aL21L
aL22L
aL32792L
aL32793L
aL32797L
aL32799L
aL32801L
aL34L
aL35L
aL36L
aL37L
aL38L
aL39L
aL40L
aL41L
aL42L
aL32811L
aL44L
aL45L
aL32817L
aL32819L
aL32846L
aL32853L
aL32858L
aL32859L
aL32862L
aL32872L
aL32873L
aL32874L
aL32875L
aL32876L
aL32877L
aL32878L
aL32879L
aL32880L
aL32881L
aL19L
aL32788L
aL32790L
aL32918L
aL32919L
aL32921L
aL32923L
aL32925L
aL32927L
aL32929L
aL32931L
aL32933L
aL32935L
aL32937L
aL32939L
aL32941L
aL178L
aL179L
aL180L
aL181L
aL182L
aL183L
aL184L
aL185L
aL186L
aL187L
aL188L
aL189L
aL190L
aL191L
aL192L
aL193L
aL194L
aL195L
aL196L
aL197L
aL198L
aL199L
aL200L
aL201L
aL202L
aL203L
aL204L
aL205L
aL206L
aL207L
aL208L
aL209L
aL210L
aL32803L
aL212L
aL213L
aL32982L
aL215L
aL216L
aL32985L
aL218L
aL219L
aL220L
aL221L
aL222L
aL223L
aL224L
aL32993L
aL32994L
aL227L
aL228L
aL229L
aL230L
aL231L
aL232L
aL33001L
aL234L
aL235L
aL236L
aL33005L
aL238L
aL33007L
aL240L
aL33009L
aL242L
aL33011L
aL33012L
aL245L
aL246L
aL33015L
aL248L
aL33017L
aL33018L
aL251L
aL33020L
aL253L
aL33022L
aL255L
aL33024L
aL257L
aL33026L
aL43L
aL33028L
aL261L
aL33030L
aL263L
aL264L
aL265L
aL266L
aL267L
aL33037L
aL33038L
aL33041L
aL33044L
aL33045L
aL33048L
aL33049L
aL33052L
aL33056L
aL33057L
aL33058L
aL33059L
aL33060L
aL33061L
aL33062L
aL33063L
aL33064L
aL33065L
aL33066L
aL33067L
aL33076L
aL33078L
aL33079L
aL33081L
aL33083L
aL33091L
aL33092L
aL33093L
aL33094L
aL33095L
aL33096L
aL33097L
aL33098L
aL33099L
aL33101L
aL33103L
aL33107L
aL33109L
aL33138L
aL33139L
aL33140L
aL33141L
aL377L
aL380L
aL33149L
aL33151L
aL33153L
aL33155L
aL33157L
aL393L
aL394L
aL399L
aL400L
aL405L
aL406L
aL33176L
aL33178L
aL33180L
aL421L
aL33190L
aL33195L
aL33197L
aL33199L
aL33201L
aL434L
aL438L
aL439L
aL440L
aL442L
aL443L
aL444L
aL33213L
aL33214L
aL447L
aL448L
aL33217L
aL33218L
aL451L
aL33220L
aL33221L
aL454L
aL455L
aL33224L
aL457L
aL458L
aL459L
aL460L
aL461L
aL462L
aL33231L
aL464L
aL482L
aL483L
aL484L
aL485L
aL486L
aL487L
aL488L
aL489L
aL490L
aL491L
aL492L
aL493L
aL494L
aL495L
aL496L
aL497L
aL498L
aL499L
aL501L
aL33270L
aL503L
aL33272L
aL506L
aL508L
aL33277L
aL33279L
aL518L
aL519L
aL520L
aL521L
aL522L
aL523L
aL524L
aL526L
aL527L
aL529L
aL530L
aL533L
aL33307L
aL33315L
aL33316L
aL33317L
aL33318L
aL33319L
aL33320L
aL33321L
aL33322L
aL33323L
aL33324L
aL33325L
aL33326L
aL33329L
aL33330L
aL563L
aL564L
aL565L
aL33334L
aL567L
aL33336L
aL33337L
aL570L
aL571L
aL572L
aL573L
aL574L
aL575L
aL577L
aL578L
aL580L
aL581L
aL582L
aL583L
aL584L
aL585L
aL586L
aL587L
aL588L
aL589L
aL590L
aL33359L
aL33360L
aL33361L
aL594L
aL596L
aL597L
aL598L
aL599L
aL601L
aL602L
aL603L
aL605L
aL606L
aL607L
aL608L
aL33377L
aL33378L
aL33379L
aL33380L
aL33381L
aL33382L
aL615L
aL33384L
aL617L
aL33386L
aL33387L
aL620L
aL621L
aL622L
aL623L
aL624L
aL625L
aL33394L
aL627L
aL628L
aL629L
aL630L
aL33399L
aL33400L
aL633L
aL634L
aL33403L
aL33404L
aL33405L
aL33406L
aL33407L
aL640L
aL641L
aL642L
aL643L
aL644L
aL645L
aL648L
aL649L
aL650L
aL651L
aL652L
aL653L
aL654L
aL655L
aL656L
aL657L
aL672L
aL33441L
aL33442L
aL33446L
aL33448L
aL33450L
aL33452L
aL33453L
aL686L
aL33455L
aL688L
aL33457L
aL33458L
aL691L
aL692L
aL33461L
aL33462L
aL33463L
aL33464L
aL33465L
aL33466L
aL33467L
aL33468L
aL33470L
aL33472L
aL33474L
aL33475L
aL33476L
aL33477L
aL33483L
aL33487L
aL33488L
aL33513L
aL33515L
aL33516L
aL33517L
aL33518L
aL33519L
aL33520L
aL33522L
aL33525L
aL33526L
aL33527L
aL33528L
aL33529L
aL33539L
aL33549L
aL33550L
aL33551L
aL33552L
aL33555L
aL33557L
aL33559L
aL33561L
aL33563L
aL33565L
aL33569L
aL33571L
aL33572L
aL33573L
aL806L
aL807L
aL33577L
aL810L
aL33579L
aL33581L
aL33583L
aL33585L
aL33589L
aL33591L
aL33592L
aL33595L
aL33598L
aL833L
aL33602L
aL33608L
aL33610L
aL33612L
aL936L
aL940L
aL949L
aL950L
aL968L
aL969L
aL970L
aL971L
aL972L
aL973L
aL974L
aL975L
aL976L
aL977L
aL978L
aL979L
aL984L
aL985L
aL987L
aL988L
aL990L
aL991L
aL992L
aL994L
aL995L
aL996L
aL997L
aL998L
aL999L
aL1002L
aL32951L
aL1182L
aL1183L
aL1185L
aL1190L
aL1192L
aL1193L
aL1195L
aL1197L
aL1198L
aL1201L
aL1202L
aL1221L
aL1223L
aL1224L
aL1225L
aL1226L
aL1227L
aL1228L
aL1229L
aL1230L
aL1231L
aL1232L
aL1236L
aL1240L
aL1242L
aL1244L
aL1246L
aL1248L
aL1254L
aL1256L
aL1262L
aL1264L
aL1266L
aL211L
aL1272L
aL1274L
aL1276L
aL1282L
aL1284L
aL1286L
aL32983L
aL1292L
aL1294L
aL1296L
aL1302L
aL217L
aL1304L
aL1306L
aL32987L
aL1317L
aL1319L
aL32989L
aL1333L
aL1335L
aL1351L
aL1353L
aL1355L
aL226L
aL32995L
aL32999L
aL33000L
aL233L
aL1401L
aL1403L
aL1405L
aL33003L
aL33004L
aL1419L
aL1422L
aL237L
aL239L
aL1436L
aL1445L
aL1447L
aL33010L
aL243L
aL244L
aL247L
aL33016L
aL249L
aL250L
aL33019L
aL252L
aL33021L
aL254L
aL33023L
aL1537L
aL1539L
aL1541L
aL33025L
aL1547L
aL1549L
aL1551L
aL1553L
aL33027L
aL1557L
aL1559L
aL260L
aL1563L
aL1565L
aL33029L
aL262L
aL269L
aL1798L
aL1800L
aL1802L
aL1804L
aL1808L
aL1810L
aL1814L
aL1816L
aL1818L
aL1820L
aL1822L
aL1824L
aL1826L
aL1828L
aL1830L
aL1832L
aL1855L
aL1875L
aL1877L
aL1893L
aL1944L
aL1945L
aL1946L
aL1947L
aL1948L
aL1949L
aL1951L
aL1952L
aL1955L
aL1956L
aL1957L
aL1958L
aL1959L
aL1960L
aL1963L
aL1964L
aL1968L
aL1969L
aL1973L
aL1977L
aL1978L
aL1982L
aL1983L
aL1984L
aL1985L
aL1986L
aL1987L
aL1998L
aL1999L
aL2001L
aL2002L
aL2003L
aL2004L
aL2005L
aL2006L
aL2007L
aL2008L
aL2009L
aL2018L
aL2020L
aL2024L
aL2026L
aL2027L
aL2028L
aL2029L
aL2030L
aL2031L
aL2032L
aL2035L
aL2037L
aL2038L
aL2042L
aL2043L
aL2044L
aL2046L
aL2048L
aL2050L
aL2053L
aL2054L
aL2056L
aL2057L
aL2058L
aL2059L
aL2060L
aL2062L
aL2073L
aL2078L
aL2082L
aL2103L
aL2104L
aL2108L
aL2109L
aL2161L
aL2173L
aL2175L
aL2178L
aL2180L
aL2182L
aL2183L
aL2185L
aL2188L
aL2193L
aL2195L
aL2203L
aL2205L
aL2254L
aL2258L
aL2259L
aL2260L
aL2261L
aL2262L
aL2267L
aL2268L
aL2270L
aL2272L
aL2281L
aL2286L
aL2287L
aL2288L
aL2289L
aL2291L
aL2293L
aL2295L
aL2297L
aL2299L
aL2301L
aL2303L
aL2305L
aL2306L
aL2307L
aL2308L
aL2309L
aL2310L
aL2311L
aL2312L
aL2317L
aL2319L
aL2321L
aL2327L
aL2328L
aL2329L
aL2331L
aL2333L
aL2341L
aL2344L
aL2345L
aL2346L
aL2348L
aL2349L
aL2351L
aL2352L
aL2354L
aL2355L
aL2358L
aL2360L
aL2361L
aL2363L
aL2364L
aL2366L
aL2367L
aL2368L
aL2369L
aL2371L
aL2373L
aL2374L
aL2375L
aL2376L
aL2377L
aL2389L
aL2390L
aL2392L
aL2393L
aL2395L
aL2396L
aL2397L
aL2398L
aL2399L
aL2400L
aL2401L
aL2403L
aL2404L
aL2406L
aL2410L
aL2420L
aL2436L
aL2444L
aL2446L
aL2454L
aL2456L
aL2463L
aL2464L
aL2466L
aL2476L
aL2478L
aL2486L
aL2488L
aL2495L
aL2505L
aL2506L
aL2507L
aL2508L
aL2509L
aL2510L
aL2511L
aL2512L
aL2514L
aL2516L
aL2524L
aL2525L
aL2529L
aL2531L
aL2533L
aL2534L
aL2537L
aL2539L
aL2545L
aL2547L
aL2549L
aL2550L
aL2551L
aL2553L
aL2559L
aL2563L
aL2567L
aL2571L
aL2575L
aL2579L
aL2580L
aL2583L
aL2584L
aL2587L
aL2588L
aL2589L
aL2591L
aL2592L
aL2603L
aL2605L
aL2613L
aL2621L
aL2629L
aL2637L
aL2647L
aL2655L
aL2679L
aL33215L
aL450L
aL33219L
aL452L
aL453L
aL33223L
aL456L
aL2739L
aL33225L
aL33226L
aL2750L
aL33227L
aL33228L
aL33229L
aL33230L
aL2777L
aL463L
aL33232L
aL2801L
aL2811L
aL2817L
aL2833L
aL2836L
aL2863L
aL2865L
aL2867L
aL2868L
aL2869L
aL2870L
aL2871L
aL2872L
aL2873L
aL2875L
aL2876L
aL2881L
aL2889L
aL2897L
aL2905L
aL2913L
aL2921L
aL2929L
aL2937L
aL2945L
aL2953L
aL2961L
aL2969L
aL2977L
aL2985L
aL2993L
aL2998L
aL3001L
aL3009L
aL3017L
aL3025L
aL3033L
aL3039L
aL3041L
aL3049L
aL509L
aL3057L
aL3065L
aL3074L
aL3077L
aL3080L
aL3082L
aL3084L
aL3087L
aL3089L
aL3090L
aL3092L
aL3095L
aL3096L
aL3098L
aL3100L
aL3106L
aL3114L
aL3116L
aL3119L
aL3120L
aL3122L
aL3124L
aL3127L
aL3130L
aL3132L
aL3135L
aL3136L
aL3138L
aL3140L
aL3143L
aL3146L
aL3148L
aL3154L
aL3159L
aL3162L
aL3167L
aL3170L
aL3172L
aL3178L
aL3180L
aL3182L
aL3183L
aL3184L
aL3186L
aL3188L
aL3189L
aL3192L
aL3193L
aL3194L
aL3195L
aL3196L
aL3197L
aL3198L
aL3210L
aL3212L
aL3213L
aL3214L
aL3215L
aL3216L
aL3218L
aL3221L
aL3223L
aL3224L
aL3234L
aL3238L
aL3239L
aL3240L
aL3242L
aL3244L
aL3246L
aL3256L
aL3257L
aL3258L
aL3264L
aL3265L
aL3267L
aL3270L
aL3285L
aL3291L
aL3292L
aL3293L
aL3296L
aL3297L
aL3299L
aL3300L
aL3301L
aL3302L
aL3303L
aL3304L
aL3305L
aL3306L
aL3307L
aL3308L
aL3309L
aL3310L
aL3311L
aL3312L
aL3315L
aL3316L
aL3317L
aL3318L
aL3319L
aL3320L
aL3321L
aL3322L
aL3323L
aL3324L
aL3325L
aL3326L
aL3327L
aL3328L
aL3329L
aL3330L
aL3331L
aL3332L
aL3333L
aL3334L
aL3335L
aL3336L
aL3337L
aL3338L
aL3339L
aL3340L
aL3341L
aL3342L
aL3343L
aL3344L
aL3346L
aL3347L
aL3348L
aL3349L
aL3350L
aL3351L
aL3352L
aL3354L
aL3355L
aL3356L
aL3357L
aL3358L
aL3359L
aL3361L
aL3363L
aL561L
aL3368L
aL562L
aL3380L
aL3385L
aL3386L
aL3387L
aL3388L
aL3389L
aL3392L
aL3393L
aL3394L
aL3395L
aL3396L
aL566L
aL3398L
aL3400L
aL3402L
aL3403L
aL3405L
aL3406L
aL3408L
aL568L
aL3410L
aL3411L
aL3412L
aL3413L
aL569L
aL3416L
aL3417L
aL3418L
aL3419L
aL3420L
aL33338L
aL3422L
aL3423L
aL3424L
aL3425L
aL3426L
aL33339L
aL3428L
aL3429L
aL3430L
aL3431L
aL3432L
aL3433L
aL3434L
aL3435L
aL3436L
aL3437L
aL3438L
aL3439L
aL3440L
aL3441L
aL3442L
aL3443L
aL3444L
aL3446L
aL3447L
aL3449L
aL3450L
aL3451L
aL3452L
aL3453L
aL3454L
aL3455L
aL3456L
aL3465L
aL3466L
aL3467L
aL3469L
aL3470L
aL3475L
aL3478L
aL3479L
aL3480L
aL3481L
aL3482L
aL3488L
aL3496L
aL3504L
aL3512L
aL3514L
aL3516L
aL3518L
aL3520L
aL3528L
aL3530L
aL3532L
aL3534L
aL3536L
aL3538L
aL3540L
aL3542L
aL3544L
aL3546L
aL591L
aL3550L
aL3551L
aL3552L
aL592L
aL3554L
aL3556L
aL3558L
aL593L
aL3561L
aL3563L
aL33362L
aL3566L
aL3568L
aL3571L
aL3573L
aL3575L
aL3576L
aL3578L
aL3581L
aL3586L
aL3588L
aL3596L
aL3598L
aL3606L
aL3608L
aL3616L
aL33373L
aL33374L
aL3643L
aL3645L
aL3647L
aL3651L
aL3653L
aL609L
aL3663L
aL3665L
aL3673L
aL3683L
aL3685L
aL3687L
aL3689L
aL33383L
aL3693L
aL3695L
aL3697L
aL3699L
aL33385L
aL3705L
aL3707L
aL3709L
aL3711L
aL3713L
aL3715L
aL3717L
aL3719L
aL33388L
aL3723L
aL3725L
aL33389L
aL3729L
aL3731L
aL3732L
aL33390L
aL33391L
aL33392L
aL33393L
aL3756L
aL626L
aL33395L
aL3764L
aL3765L
aL3766L
aL3771L
aL3773L
aL33397L
aL3777L
aL3779L
aL631L
aL632L
aL33401L
aL3806L
aL3810L
aL3812L
aL3814L
aL3818L
aL3820L
aL3822L
aL3824L
aL3826L
aL3828L
aL638L
aL3831L
aL639L
aL3839L
aL3841L
aL3849L
aL3851L
aL3887L
aL3888L
aL3893L
aL3894L
aL3895L
aL3897L
aL3898L
aL3901L
aL3907L
aL3913L
aL3937L
aL3939L
aL3941L
aL3947L
aL3949L
aL3953L
aL3955L
aL3958L
aL3962L
aL3966L
aL3977L
aL3979L
aL3981L
aL3983L
aL3987L
aL3989L
aL3992L
aL3993L
aL3995L
aL3997L
aL3998L
aL3999L
aL4001L
aL4002L
aL4003L
aL4004L
aL4005L
aL4008L
aL4009L
aL4013L
aL4014L
aL4016L
aL4018L
aL4020L
aL4025L
aL4027L
aL4029L
aL4031L
aL4033L
aL4046L
aL4048L
aL4051L
aL4054L
aL4057L
aL4058L
aL4059L
aL4060L
aL4061L
aL4062L
aL4063L
aL4064L
aL4065L
aL4066L
aL4067L
aL4068L
aL4070L
aL4075L
aL4078L
aL4085L
aL4097L
aL4098L
aL33454L
aL4122L
aL687L
aL4124L
aL33456L
aL4135L
aL4138L
aL4141L
aL4144L
aL4147L
aL4155L
aL4156L
aL4157L
aL4158L
aL693L
aL4164L
aL4165L
aL4167L
aL4168L
aL4169L
aL4171L
aL4172L
aL4180L
aL4188L
aL4196L
aL4198L
aL4216L
aL4223L
aL4225L
aL4231L
aL4234L
aL4238L
aL4239L
aL4240L
aL4241L
aL4242L
aL4243L
aL4245L
aL4246L
aL4247L
aL4248L
aL4250L
aL4252L
aL4254L
aL4256L
aL4258L
aL4260L
aL4262L
aL4264L
aL4266L
aL4268L
aL4270L
aL4272L
aL4274L
aL4276L
aL4278L
aL4280L
aL4282L
aL4284L
aL4286L
aL4288L
aL4290L
aL4292L
aL4294L
aL4299L
aL4302L
aL4305L
aL4306L
aL4307L
aL4308L
aL4309L
aL4310L
aL4311L
aL4312L
aL4313L
aL4314L
aL4315L
aL4316L
aL4345L
aL4346L
aL4347L
aL4348L
aL4349L
aL4358L
aL4363L
aL4365L
aL4366L
aL4367L
aL4368L
aL4383L
aL4385L
aL4388L
aL4391L
aL4393L
aL4395L
aL4397L
aL4399L
aL4401L
aL4403L
aL4405L
aL4409L
aL4411L
aL4421L
aL4423L
aL4425L
aL4427L
aL4431L
aL4433L
aL4435L
aL4437L
aL3421L
aL4471L
aL4473L
aL4475L
aL4477L
aL4529L
aL4531L
aL4533L
aL4535L
aL4569L
aL4571L
aL4573L
aL4575L
aL4609L
aL4611L
aL4613L
aL4615L
aL4745L
aL4747L
aL4749L
aL4751L
aL4785L
aL4787L
aL4789L
aL4791L
aL804L
aL4829L
aL4831L
aL4833L
aL4835L
aL33575L
aL809L
aL33578L
aL4869L
aL4871L
aL4873L
aL4875L
aL4955L
aL4957L
aL4959L
aL4961L
aL5007L
aL5009L
aL5011L
aL5013L
aL5047L
aL5049L
aL5051L
aL5053L
aL5087L
aL5089L
aL5091L
aL5093L
aL5135L
aL5137L
aL5139L
aL5141L
aL5175L
aL5177L
aL5179L
aL5181L
aL5215L
aL5217L
aL5219L
aL5221L
aL5239L
aL5241L
aL5243L
aL5245L
aL5279L
aL5280L
aL5281L
aL5282L
aL5299L
aL5300L
aL5301L
aL5302L
aL5319L
aL5320L
aL5321L
aL5322L
aL5339L
aL5340L
aL5341L
aL5342L
aL5359L
aL5361L
aL5363L
aL5365L
aL5399L
aL5401L
aL5403L
aL5405L
aL5439L
aL5441L
aL5443L
aL5445L
aL5479L
aL5481L
aL5483L
aL5485L
aL5487L
aL5489L
aL5491L
aL5493L
aL5519L
aL5521L
aL5523L
aL5525L
aL5527L
aL5529L
aL5531L
aL5533L
aL5559L
aL5561L
aL5593L
aL5595L
aL5597L
aL5599L
aL5601L
aL5611L
aL5613L
aL5615L
aL5617L
aL5627L
aL5629L
aL5631L
aL5633L
aL5643L
aL5645L
aL5647L
aL5649L
aL5675L
aL5677L
aL5679L
aL5681L
aL5683L
aL5693L
aL5697L
aL5719L
aL5721L
aL5723L
aL5743L
aL5745L
aL5747L
aL5755L
aL5757L
aL5759L
aL5829L
aL5831L
aL5833L
aL5835L
aL5837L
aL5839L
aL5841L
aL5843L
aL5845L
aL5846L
aL5849L
aL5854L
aL5855L
aL5857L
aL5858L
aL5865L
aL5867L
aL5869L
aL5871L
aL5913L
aL5915L
aL5917L
aL5919L
aL5929L
aL5931L
aL5933L
aL5935L
aL5945L
aL5955L
aL5971L
aL5973L
aL5975L
aL6001L
aL6003L
aL6005L
aL6047L
aL6073L
aL6083L
aL6097L
aL6111L
aL6129L
aL6131L
aL6133L
aL6135L
aL6157L
aL6158L
aL6159L
aL6160L
aL6173L
aL6174L
aL6175L
aL6176L
aL6195L
aL6199L
aL6203L
aL6207L
aL6212L
aL6218L
aL6222L
aL6226L
aL6230L
aL6234L
aL6243L
aL6244L
aL6251L
aL6258L
aL6259L
aL6260L
aL6267L
aL6268L
aL6275L
aL6286L
aL6290L
aL6292L
aL6293L
aL6294L
aL6295L
aL6296L
aL6309L
aL6310L
aL6311L
aL6312L
aL6321L
aL6322L
aL6323L
aL6324L
aL6325L
aL6326L
aL6327L
aL6328L
aL6437L
aL6439L
aL6441L
aL6443L
aL6485L
aL6487L
aL6489L
aL6491L
aL6525L
aL6527L
aL6529L
aL6531L
aL6567L
aL6569L
aL6571L
aL6573L
aL6631L
aL6633L
aL6635L
aL6637L
aL6671L
aL6673L
aL6675L
aL6677L
aL6715L
aL6717L
aL6719L
aL6721L
aL6757L
aL6759L
aL6761L
aL225L
aL6805L
aL6807L
aL6809L
aL6811L
aL6859L
aL6861L
aL6863L
aL6865L
aL6919L
aL6921L
aL6923L
aL6925L
aL6959L
aL6961L
aL6963L
aL6965L
aL6999L
aL7001L
aL7003L
aL7005L
aL7043L
aL7045L
aL7047L
aL7049L
aL7083L
aL7085L
aL7087L
aL7089L
aL7123L
aL7125L
aL7127L
aL7131L
aL7167L
aL7169L
aL7171L
aL7173L
aL7217L
aL7218L
aL7219L
aL7220L
aL241L
aL7247L
aL7249L
aL7251L
aL7253L
aL7287L
aL7289L
aL7291L
aL7293L
aL7327L
aL7329L
aL7331L
aL7333L
aL7367L
aL7369L
aL7371L
aL7373L
aL7407L
aL7409L
aL7411L
aL7413L
aL7447L
aL7449L
aL7451L
aL7453L
aL7487L
aL7489L
aL7491L
aL7493L
aL7535L
aL7537L
aL7539L
aL7541L
aL7579L
aL7581L
aL7583L
aL7585L
aL7619L
aL7621L
aL7623L
aL7625L
aL7663L
aL7665L
aL7667L
aL7669L
aL256L
aL7703L
aL7705L
aL7707L
aL7709L
aL7743L
aL7745L
aL7747L
aL7749L
aL258L
aL7783L
aL259L
aL7785L
aL7787L
aL7789L
aL6763L
aL7827L
aL7829L
aL7831L
aL7833L
aL7867L
aL7869L
aL1315L
aL7892L
aL7895L
aL7896L
aL7922L
aL7937L
aL7948L
aL7965L
aL7993L
aL7997L
aL8001L
aL8007L
aL8023L
aL8025L
aL8027L
aL33002L
aL8089L
aL8091L
aL8093L
aL8101L
aL8103L
aL8105L
aL8113L
aL8115L
aL8117L
aL8131L
aL8133L
aL8135L
aL8137L
aL8163L
aL8165L
aL8167L
aL8169L
aL8171L
aL8173L
aL8175L
aL8177L
aL8203L
aL8205L
aL8207L
aL8209L
aL8211L
aL8213L
aL8215L
aL8217L
aL8219L
aL8221L
aL8223L
aL8225L
aL8251L
aL8253L
aL8255L
aL8257L
aL8259L
aL8261L
aL8263L
aL8265L
aL8291L
aL8293L
aL8295L
aL8297L
aL8323L
aL8325L
aL8327L
aL8329L
aL8331L
aL8333L
aL8335L
aL8337L
aL8339L
aL8341L
aL8343L
aL8345L
aL8387L
aL8397L
aL8401L
aL8409L
aL8419L
aL8427L
aL8433L
aL8437L
aL8465L
aL8477L
aL8481L
aL8489L
aL8505L
aL8517L
aL8521L
aL8529L
aL8531L
aL8533L
aL8535L
aL8537L
aL8579L
aL8581L
aL8583L
aL8585L
aL8627L
aL8629L
aL8631L
aL8633L
aL8635L
aL8637L
aL8639L
aL8641L
aL8743L
aL8744L
aL8745L
aL8746L
aL8747L
aL8748L
aL8749L
aL8750L
aL8759L
aL8785L
aL8787L
aL8789L
aL8815L
aL8817L
aL8819L
aL8821L
aL8863L
aL8865L
aL8867L
aL8869L
aL8903L
aL8905L
aL8907L
aL8909L
aL9071L
aL9073L
aL9091L
aL9093L
aL9127L
aL9129L
aL9131L
aL9133L
aL9135L
aL9137L
aL9139L
aL9141L
aL9207L
aL9209L
aL9211L
aL9213L
aL9247L
aL9249L
aL9251L
aL9253L
aL9287L
aL9289L
aL9291L
aL9293L
aL9327L
aL9329L
aL9331L
aL9333L
aL9367L
aL9369L
aL9371L
aL9377L
aL9411L
aL9413L
aL9415L
aL9417L
aL9451L
aL9453L
aL9455L
aL9457L
aL9491L
aL9493L
aL9495L
aL9497L
aL9518L
aL9519L
aL9520L
aL9521L
aL9522L
aL9556L
aL9562L
aL9566L
aL9568L
aL9570L
aL9574L
aL9580L
aL9582L
aL9608L
aL9622L
aL9632L
aL9646L
aL9660L
aL9668L
aL9670L
aL9678L
aL9680L
aL9728L
aL9734L
aL9744L
aL9762L
aL9772L
aL9784L
aL9790L
aL9800L
aL9808L
aL9826L
aL9828L
aL9830L
aL9832L
aL9834L
aL9836L
aL9838L
aL9840L
aL9842L
aL9844L
aL9846L
aL9848L
aL9850L
aL9852L
aL9899L
aL9941L
aL9942L
aL9943L
aL9944L
aL9947L
aL9950L
aL9956L
aL9957L
aL10039L
aL10151L
aL10155L
aL10156L
aL10188L
aL10190L
aL10204L
aL10208L
aL10209L
aL10212L
aL10213L
aL10216L
aL10217L
aL10221L
aL10222L
aL10225L
aL10226L
aL10228L
aL10244L
aL10246L
aL10247L
aL10250L
aL10258L
aL10629L
aL10631L
aL10678L
aL10680L
aL10688L
aL10690L
aL10692L
aL10694L
aL10836L
aL10838L
aL10840L
aL10842L
aL10850L
aL10858L
aL10866L
aL10868L
aL10870L
aL10872L
aL10874L
aL10876L
aL10878L
aL10880L
aL10882L
aL10884L
aL10886L
aL10888L
aL10998L
aL11011L
aL11014L
aL11017L
aL11052L
aL11082L
aL11083L
aL11084L
aL11101L
aL11103L
aL11105L
aL11107L
aL11109L
aL11111L
aL11113L
aL11115L
aL11129L
aL11130L
aL11132L
aL11133L
aL11134L
aL11135L
aL11172L
aL11173L
aL11174L
aL11176L
aL11178L
aL11182L
aL11184L
aL11186L
aL11188L
aL11190L
aL11192L
aL11194L
aL11196L
aL11198L
aL11200L
aL11202L
aL11207L
aL11215L
aL11217L
aL11219L
aL11225L
aL11227L
aL11229L
aL11235L
aL11237L
aL11239L
aL11245L
aL11247L
aL11249L
aL11255L
aL11257L
aL11259L
aL11265L
aL11267L
aL11269L
aL11277L
aL11279L
aL11280L
aL11283L
aL11285L
aL11287L
aL11289L
aL11291L
aL11293L
aL11295L
aL11297L
aL11299L
aL11301L
aL11303L
aL11305L
aL11307L
aL11309L
aL11311L
aL11313L
aL11315L
aL11317L
aL11319L
aL11321L
aL11323L
aL11325L
aL11327L
aL11329L
aL11331L
aL11333L
aL11335L
aL11337L
aL11339L
aL11341L
aL11343L
aL11345L
aL11347L
aL11349L
aL11351L
aL11353L
aL11355L
aL11357L
aL11359L
aL11365L
aL11370L
aL11371L
aL11377L
aL11379L
aL11381L
aL11387L
aL11393L
aL11395L
aL11396L
aL11399L
aL11400L
aL11433L
aL11441L
aL11442L
aL11443L
aL11444L
aL11445L
aL11446L
aL11447L
aL11448L
aL11449L
aL11450L
aL11451L
aL11452L
aL11453L
aL11454L
aL11455L
aL11457L
aL11458L
aL11459L
aL11460L
aL11461L
aL11462L
aL11463L
aL11464L
aL11465L
aL11466L
aL11467L
aL11475L
aL11476L
aL11478L
aL11481L
aL11482L
aL11483L
aL11484L
aL11486L
aL11487L
aL11488L
aL11489L
aL11496L
aL11529L
aL11530L
aL11531L
aL11532L
aL11533L
aL11534L
aL11535L
aL11536L
aL11537L
aL11538L
aL11539L
aL11540L
aL11541L
aL11542L
aL11543L
aL11544L
aL11545L
aL11547L
aL11548L
aL11549L
aL11550L
aL11551L
aL11552L
aL11553L
aL11554L
aL11555L
aL11556L
aL11557L
aL11558L
aL11561L
aL11563L
aL11566L
aL11568L
aL11569L
aL11572L
aL11574L
aL11577L
aL11578L
aL11579L
aL11584L
aL11585L
aL11588L
aL11640L
aL11642L
aL11644L
aL11646L
aL11648L
aL11688L
aL11689L
aL11690L
aL11691L
aL11692L
aL11693L
aL11694L
aL11695L
aL11724L
aL11725L
aL11732L
aL11733L
aL11734L
aL11735L
aL11736L
aL11737L
aL11738L
aL11739L
aL11740L
aL11741L
aL11855L
aL11936L
aL11938L
aL11940L
aL11942L
aL11944L
aL11957L
aL11959L
aL11961L
aL11963L
aL11965L
aL11969L
aL11971L
aL11978L
aL11985L
aL11987L
aL11989L
aL11993L
aL11995L
aL11999L
aL12003L
aL12005L
aL12011L
aL12013L
aL12015L
aL12017L
aL12019L
aL12021L
aL12023L
aL12032L
aL12034L
aL12035L
aL12038L
aL12042L
aL12044L
aL12049L
aL12052L
aL12054L
aL12055L
aL12056L
aL12058L
aL12066L
aL12068L
aL12076L
aL12084L
aL12092L
aL12093L
aL12095L
aL12096L
aL12098L
aL12102L
aL12108L
aL12110L
aL12179L
aL12180L
aL12181L
aL12182L
aL12183L
aL12184L
aL12185L
aL12186L
aL12187L
aL12188L
aL12189L
aL12190L
aL12191L
aL12192L
aL12193L
aL12194L
aL12195L
aL12196L
aL12198L
aL12199L
aL12200L
aL12201L
aL12202L
aL12203L
aL12204L
aL12205L
aL12206L
aL12207L
aL12208L
aL12209L
aL12210L
aL12211L
aL12212L
aL12213L
aL12214L
aL12215L
aL12217L
aL12219L
aL12221L
aL12225L
aL12235L
aL12236L
aL12237L
aL12238L
aL12239L
aL12241L
aL12243L
aL12250L
aL12257L
aL12259L
aL12261L
aL12263L
aL12265L
aL12267L
aL12269L
aL12271L
aL12274L
aL12297L
aL12300L
aL12301L
aL12302L
aL12304L
aL12305L
aL12344L
aL12346L
aL12354L
aL12356L
aL12365L
aL12366L
aL12367L
aL12441L
aL12442L
aL12478L
aL12484L
aL12485L
aL12486L
aL12487L
aL12528L
aL12529L
aL12530L
aL12531L
aL12532L
aL12533L
aL12534L
aL12535L
aL12536L
aL12537L
aL12538L
aL12539L
aL12540L
aL12541L
aL12542L
aL12543L
aL12544L
aL12545L
aL12546L
aL12547L
aL12548L
aL12549L
aL12550L
aL12551L
aL12557L
aL12559L
aL12563L
aL12565L
aL12608L
aL12612L
aL12614L
aL12618L
aL12620L
aL12625L
aL12631L
aL12633L
aL12709L
aL12729L
aL12731L
aL12733L
aL12735L
aL12743L
aL12745L
aL12747L
aL12753L
aL12761L
aL12765L
aL12767L
aL12771L
aL12773L
aL12775L
aL12777L
aL12779L
aL12785L
aL12787L
aL12789L
aL12791L
aL12801L
aL12803L
aL12805L
aL12807L
aL12814L
aL12816L
aL12818L
aL12820L
aL12822L
aL12824L
aL12826L
aL12828L
aL12836L
aL12865L
aL12994L
aL13000L
aL13001L
aL13003L
aL13166L
aL13202L
aL13209L
aL13216L
aL13217L
aL13218L
aL13219L
aL13220L
aL13221L
aL13222L
aL13223L
aL13224L
aL13225L
aL13226L
aL13228L
aL13229L
aL13230L
aL13231L
aL13232L
aL13233L
aL13234L
aL13235L
aL13237L
aL13238L
aL13239L
aL13240L
aL13241L
aL13242L
aL13243L
aL13244L
aL13245L
aL13246L
aL13247L
aL13248L
aL13249L
aL13250L
aL13251L
aL13252L
aL13253L
aL13254L
aL13255L
aL13256L
aL13257L
aL13258L
aL13259L
aL13260L
aL13261L
aL13262L
aL13263L
aL13265L
aL13267L
aL13278L
aL13279L
aL13283L
aL13284L
aL13285L
aL13286L
aL13287L
aL13288L
aL13320L
aL13773L
aL13774L
aL13775L
aL13776L
aL13777L
aL13778L
aL13779L
aL13780L
aL13781L
aL13782L
aL13783L
aL13784L
aL13785L
aL13786L
aL13787L
aL13788L
aL13791L
aL13793L
aL13795L
aL13797L
aL13799L
aL13801L
aL13803L
aL13805L
aL13807L
aL13809L
aL13811L
aL13813L
aL13815L
aL13817L
aL13819L
aL13820L
aL13821L
aL13822L
aL13823L
aL13824L
aL13825L
aL13826L
aL13827L
aL13828L
aL13829L
aL13830L
aL13831L
aL13832L
aL13833L
aL13834L
aL13856L
aL13864L
aL13865L
aL13866L
aL13867L
aL13868L
aL13870L
aL13872L
aL13873L
aL13874L
aL13876L
aL13878L
aL13879L
aL13880L
aL13881L
aL13882L
aL13883L
aL13884L
aL13885L
aL13886L
aL13887L
aL13888L
aL13889L
aL13890L
aL13891L
aL13892L
aL13893L
aL13894L
aL13918L
aL13919L
aL13920L
aL13921L
aL13922L
aL13923L
aL13924L
aL13925L
aL13926L
aL13927L
aL13929L
aL13931L
aL13933L
aL13935L
aL13937L
aL13939L
aL13941L
aL13943L
aL13945L
aL13947L
aL13948L
aL13949L
aL13950L
aL13951L
aL13952L
aL13953L
aL13954L
aL13955L
aL13956L
aL13957L
aL13958L
aL13959L
aL13960L
aL13963L
aL13964L
aL13965L
aL13966L
aL13967L
aL13968L
aL13969L
aL13970L
aL13972L
aL13974L
aL13976L
aL13978L
aL13980L
aL13982L
aL13984L
aL13986L
aL13988L
aL13990L
aL13992L
aL13994L
aL13995L
aL13996L
aL13997L
aL13998L
aL13999L
aL14001L
aL14003L
aL14005L
aL14007L
aL14009L
aL14011L
aL14013L
aL14015L
aL14017L
aL14019L
aL14021L
aL14023L
aL14025L
aL14027L
aL14029L
aL14031L
aL14033L
aL14035L
aL14037L
aL14039L
aL14041L
aL14043L
aL14045L
aL14047L
aL14049L
aL14051L
aL14053L
aL14055L
aL14057L
aL14059L
aL14061L
aL14063L
aL14065L
aL14067L
aL14068L
aL14069L
aL14070L
aL14072L
aL14074L
aL14076L
aL14078L
aL14080L
aL14082L
aL14084L
aL14086L
aL14088L
aL14090L
aL14092L
aL14094L
aL14096L
aL14098L
aL14100L
aL14102L
aL14104L
aL14106L
aL14108L
aL14110L
aL14112L
aL14114L
aL14116L
aL14118L
aL14120L
aL14122L
aL14124L
aL14126L
aL14127L
aL14128L
aL14130L
aL14132L
aL14134L
aL14136L
aL14138L
aL14140L
aL14142L
aL14144L
aL14146L
aL14148L
aL14150L
aL14152L
aL14154L
aL14156L
aL14158L
aL14160L
aL14162L
aL14164L
aL14166L
aL14168L
aL14170L
aL14172L
aL14174L
aL14176L
aL14178L
aL14184L
aL14186L
aL14188L
aL14190L
aL14192L
aL14194L
aL14200L
aL14202L
aL14204L
aL14206L
aL14208L
aL14210L
aL14214L
aL14220L
aL14222L
aL14226L
aL14228L
aL14230L
aL14232L
aL14234L
aL14236L
aL14238L
aL14240L
aL14242L
aL14244L
aL14246L
aL14248L
aL14250L
aL14252L
aL14254L
aL14256L
aL14258L
aL14260L
aL14262L
aL14264L
aL14266L
aL14268L
aL14270L
aL14272L
aL14274L
aL14276L
aL14278L
aL14280L
aL14282L
aL14284L
aL14286L
aL14292L
aL14295L
aL14296L
aL14297L
aL14298L
aL14299L
aL14343L
aL14358L
aL14375L
aL14381L
aL14383L
aL14391L
aL14393L
aL14401L
aL14405L
aL14407L
aL14413L
aL14417L
aL14419L
aL14421L
aL14423L
aL14425L
aL14427L
aL14429L
aL14431L
aL14437L
aL14441L
aL14445L
aL14447L
aL14451L
aL14459L
aL14461L
aL14465L
aL14469L
aL14486L
aL14488L
aL14490L
aL14492L
aL14494L
aL14496L
aL14498L
aL14500L
aL14502L
aL14504L
aL14506L
aL14508L
aL14510L
aL14512L
aL14514L
aL14516L
aL14518L
aL14520L
aL14522L
aL14524L
aL14525L
aL14526L
aL14528L
aL14530L
aL14532L
aL14536L
aL14538L
aL14542L
aL14546L
aL14548L
aL14550L
aL14552L
aL14554L
aL14556L
aL14560L
aL14564L
aL14572L
aL14580L
aL14588L
aL14601L
aL14606L
aL14618L
aL14626L
aL14630L
aL14634L
aL14636L
aL14638L
aL14640L
aL14642L
aL14644L
aL14646L
aL14648L
aL14650L
aL14652L
aL14656L
aL14658L
aL14660L
aL14662L
aL14664L
aL14666L
aL14668L
aL14670L
aL14672L
aL14674L
aL14678L
aL14680L
aL14682L
aL14683L
aL14686L
aL14688L
aL14692L
aL14696L
aL14700L
aL14701L
aL14702L
aL14703L
aL14704L
aL14705L
aL14707L
aL14708L
aL14710L
aL14712L
aL14714L
aL14716L
aL14718L
aL14720L
aL14722L
aL14724L
aL14726L
aL14728L
aL14730L
aL14732L
aL14734L
aL14736L
aL14742L
aL14744L
aL14746L
aL14748L
aL14750L
aL14752L
aL14753L
aL14754L
aL14756L
aL14757L
aL14758L
aL14760L
aL14761L
aL14762L
aL14764L
aL14765L
aL14768L
aL14770L
aL14772L
aL14774L
aL14776L
aL14778L
aL14780L
aL14784L
aL14786L
aL14788L
aL14790L
aL14792L
aL14794L
aL14800L
aL14802L
aL14804L
aL14806L
aL14814L
aL14816L
aL14818L
aL14820L
aL14822L
aL14824L
aL14826L
aL14830L
aL14832L
aL14834L
aL14836L
aL14838L
aL14840L
aL14842L
aL14844L
aL14846L
aL14848L
aL14849L
aL14850L
aL14851L
aL14854L
aL14855L
aL14856L
aL14858L
aL14864L
aL14868L
aL14872L
aL14874L
aL14878L
aL14882L
aL14886L
aL14890L
aL14894L
aL14896L
aL14898L
aL14900L
aL14902L
aL14904L
aL14910L
aL14912L
aL14914L
aL14918L
aL14920L
aL14922L
aL14930L
aL14932L
aL14934L
aL14936L
aL14940L
aL14944L
aL14946L
aL14948L
aL14952L
aL14954L
aL14958L
aL14960L
aL14962L
aL14966L
aL14968L
aL14970L
aL14972L
aL14974L
aL14976L
aL14978L
aL14980L
aL14982L
aL14984L
aL14986L
aL14988L
aL14990L
aL14992L
aL14994L
aL14996L
aL14998L
aL15002L
aL15008L
aL15012L
aL15014L
aL15016L
aL15018L
aL15022L
aL15024L
aL15026L
aL15028L
aL15030L
aL15034L
aL15036L
aL15038L
aL15040L
aL15042L
aL15044L
aL15048L
aL15052L
aL15054L
aL15056L
aL15058L
aL15060L
aL15064L
aL15066L
aL15068L
aL15070L
aL15072L
aL15074L
aL15076L
aL15078L
aL15082L
aL15086L
aL15088L
aL15090L
aL15092L
aL15094L
aL15096L
aL15104L
aL15108L
aL15110L
aL15116L
aL15122L
aL15128L
aL15130L
aL15132L
aL15134L
aL15138L
aL15140L
aL15142L
aL15144L
aL15146L
aL15148L
aL15152L
aL15154L
aL15156L
aL15160L
aL15162L
aL15164L
aL15168L
aL15170L
aL15172L
aL15176L
aL15178L
aL15182L
aL15184L
aL15186L
aL15192L
aL15196L
aL15200L
aL15202L
aL15204L
aL15206L
aL15208L
aL15210L
aL15212L
aL15214L
aL15216L
aL15220L
aL15222L
aL15224L
aL15226L
aL15228L
aL15230L
aL15234L
aL15236L
aL15238L
aL15242L
aL15244L
aL15246L
aL15250L
aL15252L
aL15254L
aL15256L
aL15258L
aL15260L
aL15262L
aL15266L
aL15274L
aL15276L
aL15278L
aL15282L
aL15290L
aL15296L
aL15300L
aL15302L
aL15304L
aL15308L
aL15310L
aL15312L
aL15314L
aL15316L
aL15317L
aL15331L
aL15353L
aL15410L
aL15425L
aL15451L
aL15457L
aL15460L
aL15461L
aL15462L
aL15463L
aL15464L
aL15465L
aL15466L
aL15477L
aL15478L
aL15479L
aL15480L
aL15508L
aL15510L
aL15587L
aL15588L
aL15589L
aL15590L
aL15591L
aL15592L
aL15593L
aL15594L
aL15596L
aL15597L
aL15598L
aL15599L
aL15600L
aL15601L
aL15602L
aL15604L
aL15605L
aL15607L
aL15608L
aL15609L
aL15610L
aL15611L
aL15612L
aL15613L
aL15614L
aL15615L
aL15617L
aL15618L
aL15619L
aL15620L
aL15621L
aL15622L
aL15623L
aL15625L
aL15626L
aL15627L
aL15628L
aL15629L
aL15630L
aL15631L
aL15632L
aL15634L
aL15635L
aL15636L
aL15637L
aL15640L
aL15641L
aL15642L
aL15643L
aL15646L
aL15647L
aL15648L
aL15649L
aL15650L
aL15653L
aL15654L
aL15656L
aL15657L
aL15659L
aL15660L
aL15661L
aL15662L
aL15663L
aL15664L
aL15666L
aL15667L
aL15669L
aL15670L
aL15671L
aL15672L
aL15673L
aL15674L
aL15675L
aL15677L
aL15681L
aL15683L
aL15693L
aL15705L
aL15707L
aL15709L
aL15711L
aL15713L
aL15715L
aL15717L
aL15723L
aL15725L
aL15727L
aL15729L
aL15737L
aL15739L
aL15741L
aL15742L
aL15743L
aL15744L
aL15745L
aL15746L
aL15747L
aL15749L
aL15751L
aL15753L
aL15755L
aL15757L
aL15759L
aL15761L
aL15764L
aL15766L
aL15768L
aL15770L
aL15776L
aL15778L
aL15780L
aL15784L
aL15786L
aL15788L
aL15790L
aL15792L
aL15794L
aL15796L
aL15798L
aL15802L
aL15804L
aL15806L
aL15808L
aL15810L
aL15812L
aL15813L
aL15814L
aL15817L
aL15818L
aL15821L
aL15823L
aL15824L
aL15825L
aL15830L
aL15831L
aL15834L
aL15837L
aL15838L
aL15840L
aL15843L
aL15844L
aL15845L
aL15847L
aL15848L
aL15849L
aL15851L
aL15852L
aL15854L
aL15860L
aL15862L
aL15863L
aL15865L
aL15866L
aL15867L
aL15869L
aL15871L
aL15872L
aL15874L
aL15877L
aL15879L
aL15881L
aL15885L
aL15887L
aL15889L
aL15891L
aL15893L
aL15895L
aL15897L
aL15898L
aL15899L
aL15900L
aL15901L
aL15902L
aL15903L
aL15904L
aL15905L
aL15907L
aL15909L
aL15911L
aL15913L
aL15915L
aL15917L
aL15923L
aL15925L
aL15931L
aL15937L
aL15939L
aL15945L
aL15947L
aL15955L
aL15957L
aL15963L
aL15965L
aL15967L
aL15979L
aL15980L
aL15981L
aL15992L
aL15993L
aL15994L
aL15996L
aL15997L
aL15998L
aL15999L
aL16000L
aL16001L
aL16002L
aL16003L
aL16004L
aL16005L
aL16006L
aL16008L
aL16009L
aL16046L
aL16047L
aL16048L
aL16049L
aL16050L
aL16051L
aL16053L
aL16054L
aL16055L
aL16056L
aL16057L
aL16059L
aL16060L
aL16062L
aL16064L
aL16065L
aL16067L
aL16068L
aL16069L
aL16118L
aL16119L
aL16120L
aL16121L
aL16122L
aL16123L
aL16124L
aL16125L
aL16126L
aL16179L
aL16180L
aL16181L
aL16182L
aL16183L
aL16184L
aL16185L
aL16186L
aL16187L
aL16188L
aL16189L
aL16213L
aL16214L
aL16216L
aL16220L
aL16221L
aL16227L
aL16228L
aL16229L
aL16230L
aL16231L
aL16232L
aL16233L
aL16234L
aL16236L
aL16237L
aL16238L
aL16239L
aL16240L
aL16241L
aL16242L
aL16243L
aL16245L
aL16246L
aL16247L
aL16248L
aL16249L
aL16262L
aL16263L
aL16264L
aL16265L
aL16266L
aL16267L
aL16268L
aL16269L
aL16272L
aL16273L
aL16274L
aL16275L
aL16278L
aL16279L
aL16281L
aL16297L
aL16299L
aL16301L
aL16303L
aL16305L
aL16307L
aL16309L
aL16311L
aL16313L
aL16315L
aL16317L
aL16319L
aL16321L
aL16323L
aL16325L
aL16327L
aL16329L
aL16331L
aL16333L
aL16335L
aL16337L
aL16339L
aL16341L
aL16343L
aL16345L
aL16347L
aL16349L
aL16351L
aL16353L
aL16355L
aL16357L
aL16359L
aL16361L
aL16363L
aL16365L
aL16367L
aL16369L
aL16371L
aL16373L
aL16375L
aL16377L
aL16379L
aL16381L
aL16383L
aL16385L
aL16387L
aL16389L
aL16391L
aL16393L
aL16395L
aL16397L
aL16399L
aL16401L
aL16403L
aL16405L
aL16407L
aL16409L
aL16411L
aL16413L
aL16415L
aL16417L
aL16419L
aL16421L
aL16423L
aL16425L
aL16427L
aL16429L
aL16431L
aL16433L
aL16435L
aL16437L
aL16439L
aL16441L
aL16443L
aL16445L
aL16447L
aL16449L
aL16451L
aL16453L
aL16455L
aL16457L
aL16459L
aL16461L
aL16463L
aL16465L
aL16467L
aL16469L
aL16471L
aL16473L
aL16475L
aL16477L
aL16479L
aL16481L
aL16483L
aL16485L
aL16487L
aL16489L
aL16491L
aL16493L
aL16495L
aL16497L
aL16499L
aL16501L
aL16503L
aL16505L
aL16507L
aL16509L
aL16511L
aL16513L
aL16515L
aL16517L
aL16519L
aL16521L
aL16523L
aL16525L
aL16527L
aL16529L
aL16531L
aL16533L
aL16535L
aL16537L
aL16539L
aL16541L
aL16543L
aL16591L
aL16594L
aL16595L
aL16596L
aL16597L
aL16598L
aL16599L
aL16601L
aL16617L
aL16622L
aL16631L
aL16633L
aL16634L
aL16635L
aL16636L
aL16637L
aL16638L
aL16639L
aL16640L
aL16641L
aL16642L
aL16643L
aL16644L
aL16646L
aL16647L
aL16648L
aL16649L
aL16650L
aL16651L
aL16652L
aL16653L
aL16654L
aL16655L
aL16656L
aL16657L
aL16658L
aL16659L
aL16660L
aL16661L
aL16662L
aL16663L
aL16664L
aL16665L
aL16666L
aL16667L
aL16668L
aL16669L
aL16670L
aL16671L
aL16672L
aL16673L
aL16678L
aL16679L
aL16680L
aL16681L
aL16682L
aL16683L
aL16688L
aL16689L
aL16690L
aL16691L
aL16692L
aL16694L
aL16696L
aL16697L
aL16869L
aL17136L
aL17143L
aL17167L
aL17168L
aL17174L
aL17175L
aL17176L
aL17177L
aL17178L
aL17180L
aL17181L
aL17182L
aL17184L
aL17185L
aL17186L
aL17187L
aL17190L
aL17192L
aL17194L
aL17196L
aL17199L
aL17200L
aL17201L
aL17202L
aL17203L
aL17204L
aL17205L
aL17206L
aL17207L
aL17208L
aL17209L
aL17210L
aL17211L
aL17212L
aL17213L
aL17214L
aL17215L
aL17216L
aL17217L
aL17218L
aL17219L
aL17220L
aL17221L
aL17222L
aL17223L
aL17224L
aL17226L
aL17227L
aL17230L
aL17231L
aL17232L
aL17233L
aL17234L
aL17235L
aL17236L
aL17238L
aL17239L
aL17241L
aL17242L
aL17243L
aL17244L
aL17245L
aL17247L
aL17248L
aL17249L
aL17250L
aL17251L
aL17252L
aL17253L
aL17254L
aL17255L
aL17256L
aL17257L
aL17258L
aL17259L
aL17261L
aL17262L
aL17263L
aL17264L
aL17266L
aL17267L
aL17270L
aL17271L
aL17272L
aL17287L
aL17288L
aL17289L
aL17290L
aL17291L
aL17292L
aL17293L
aL17294L
aL17295L
aL17296L
aL17297L
aL17298L
aL17299L
aL17300L
aL17301L
aL17302L
aL17305L
aL17306L
aL17317L
aL17363L
aL17364L
aL17365L
aL17366L
aL17367L
aL17368L
aL17392L
aL17402L
aL17403L
aL17404L
aL17406L
aL17407L
aL17408L
aL17423L
aL17424L
aL17425L
aL17426L
aL17428L
aL17429L
aL17432L
aL17433L
aL17436L
aL17437L
aL17440L
aL17441L
aL17444L
aL17445L
aL17448L
aL17449L
aL17452L
aL17453L
aL17455L
aL17456L
aL17459L
aL17460L
aL17463L
aL17464L
aL17466L
aL17467L
aL17470L
aL17471L
aL17476L
aL17477L
aL17478L
aL17479L
aL17480L
aL17481L
aL17482L
aL17483L
aL17485L
aL17487L
aL17490L
aL17492L
aL17495L
aL17496L
aL17497L
aL17498L
aL17499L
aL17500L
aL17520L
aL17524L
aL17526L
aL17528L
aL17536L
aL17546L
aL17547L
aL17549L
aL17559L
aL17619L
aL17621L
aL17623L
aL17624L
aL17630L
aL17634L
aL17636L
aL17643L
aL17646L
aL17647L
aL17648L
aL17650L
aL17652L
aL17656L
aL17658L
aL17660L
aL17662L
aL17664L
aL17666L
aL17668L
aL17670L
aL17672L
aL17674L
aL17676L
aL17678L
aL17680L
aL17682L
aL17684L
aL17686L
aL17688L
aL17690L
aL17692L
aL17694L
aL17703L
aL17709L
aL17713L
aL17715L
aL17718L
aL17720L
aL17722L
aL17726L
aL17728L
aL17732L
aL17736L
aL17738L
aL17740L
aL17743L
aL17754L
aL17765L
aL17767L
aL17769L
aL17770L
aL17771L
aL17772L
aL17773L
aL17791L
aL17793L
aL17794L
aL17795L
aL17796L
aL17812L
aL17814L
aL17815L
aL17816L
aL17832L
aL17834L
aL17836L
aL17838L
aL17840L
aL17841L
aL17843L
aL17847L
aL17848L
aL17849L
aL17850L
aL17857L
aL17859L
aL17861L
aL17863L
aL17864L
aL17865L
aL17866L
aL17867L
aL17868L
aL17869L
aL17870L
aL17871L
aL17887L
aL17888L
aL17889L
aL17893L
aL17894L
aL17895L
aL17897L
aL17898L
aL17912L
aL17918L
aL17920L
aL17922L
aL3829L
aL17924L
aL17926L
aL17928L
aL17930L
aL17932L
aL17938L
aL17940L
aL17944L
aL17945L
aL17946L
aL17953L
aL17957L
aL17959L
aL17960L
aL17961L
aL17962L
aL17963L
aL17965L
aL17967L
aL17968L
aL17970L
aL17972L
aL17975L
aL17977L
aL17978L
aL17982L
aL17999L
aL18025L
aL18029L
aL18036L
aL18038L
aL18040L
aL18042L
aL18044L
aL18046L
aL18048L
aL18050L
aL18052L
aL18054L
aL18056L
aL18058L
aL18060L
aL18062L
aL18064L
aL18066L
aL18067L
aL18068L
aL18580L
aL18590L
aL18592L
aL18594L
aL18596L
aL18598L
aL18600L
aL18602L
aL18604L
aL18606L
aL18608L
aL18610L
aL18612L
aL18614L
aL18616L
aL18618L
aL18624L
aL18626L
aL18635L
aL18637L
aL18639L
aL18655L
aL18658L
aL18660L
aL18662L
aL18664L
aL18666L
aL18668L
aL18670L
aL18672L
aL18674L
aL18676L
aL18679L
aL18680L
aL18682L
aL18684L
aL18686L
aL18688L
aL18690L
aL18692L
aL18694L
aL18696L
aL18698L
aL18700L
aL18702L
aL18704L
aL18706L
aL18708L
aL18710L
aL18712L
aL18714L
aL18716L
aL18718L
aL18720L
aL18722L
aL18724L
aL18726L
aL18730L
aL18742L
aL18744L
aL18746L
aL18748L
aL18752L
aL18754L
aL18756L
aL18758L
aL18760L
aL18762L
aL18764L
aL18766L
aL18768L
aL18770L
aL18772L
aL18775L
aL18777L
aL18779L
aL18781L
aL18783L
aL18787L
aL18789L
aL18791L
aL18793L
aL18795L
aL18797L
aL18799L
aL18801L
aL18803L
aL18805L
aL18807L
aL18809L
aL18811L
aL18813L
aL18815L
aL18817L
aL18819L
aL18821L
aL18823L
aL18825L
aL18827L
aL18829L
aL18831L
aL18833L
aL18835L
aL18837L
aL18839L
aL18841L
aL18843L
aL18845L
aL18847L
aL18849L
aL18851L
aL18853L
aL18855L
aL18857L
aL18859L
aL18861L
aL18863L
aL18865L
aL18867L
aL18869L
aL18871L
aL18873L
aL18875L
aL18877L
aL18879L
aL18881L
aL18883L
aL18885L
aL18887L
aL18889L
aL18891L
aL18893L
aL18895L
aL18897L
aL18899L
aL18901L
aL18903L
aL18905L
aL18907L
aL18909L
aL18911L
aL18913L
aL18915L
aL18917L
aL18919L
aL18921L
aL18923L
aL18925L
aL18927L
aL18929L
aL18931L
aL18933L
aL18935L
aL18937L
aL18939L
aL18941L
aL18943L
aL18945L
aL18947L
aL18949L
aL18951L
aL18953L
aL18955L
aL18957L
aL18959L
aL18961L
aL18963L
aL18965L
aL18967L
aL18969L
aL18971L
aL18973L
aL18975L
aL18977L
aL18979L
aL18981L
aL18983L
aL18985L
aL18987L
aL18989L
aL18991L
aL18999L
aL19003L
aL19005L
aL19007L
aL19009L
aL19011L
aL19013L
aL19015L
aL19017L
aL19019L
aL19021L
aL19023L
aL19025L
aL19027L
aL19029L
aL19031L
aL19033L
aL19035L
aL19036L
aL19037L
aL19038L
aL19039L
aL19040L
aL19041L
aL19042L
aL19043L
aL19044L
aL19045L
aL19046L
aL19047L
aL19049L
aL19051L
aL19053L
aL19055L
aL19057L
aL19065L
aL19069L
aL19071L
aL19073L
aL19077L
aL19081L
aL19083L
aL19085L
aL19087L
aL19101L
aL19103L
aL19105L
aL19107L
aL19109L
aL19111L
aL19113L
aL19115L
aL19117L
aL19119L
aL19129L
aL19131L
aL19133L
aL19135L
aL19137L
aL19139L
aL19141L
aL19143L
aL19145L
aL19147L
aL19149L
aL19151L
aL19169L
aL19171L
aL19173L
aL19175L
aL19177L
aL19179L
aL19181L
aL19183L
aL19185L
aL19187L
aL19189L
aL19191L
aL19193L
aL19194L
aL19195L
aL19196L
aL19197L
aL19198L
aL19199L
aL19200L
aL19201L
aL19202L
aL19203L
aL19204L
aL19205L
aL19206L
aL19207L
aL19208L
aL19209L
aL19211L
aL19213L
aL19215L
aL19217L
aL19219L
aL19221L
aL19223L
aL19225L
aL19227L
aL19229L
aL19231L
aL19233L
aL19235L
aL19237L
aL19239L
aL19241L
aL19243L
aL19245L
aL19247L
aL19249L
aL19251L
aL19253L
aL19255L
aL19257L
aL19258L
aL19259L
aL19260L
aL19261L
aL19262L
aL19263L
aL19264L
aL19265L
aL19266L
aL19267L
aL19268L
aL19269L
aL19270L
aL19271L
aL19272L
aL19273L
aL19274L
aL19275L
aL19276L
aL19277L
aL19278L
aL19279L
aL19280L
aL19281L
aL19282L
aL19283L
aL19284L
aL19285L
aL19286L
aL19287L
aL19288L
aL19289L
aL19293L
aL19295L
aL19297L
aL19299L
aL19301L
aL19303L
aL19311L
aL19313L
aL19315L
aL19317L
aL19319L
aL19321L
aL19323L
aL19325L
aL19327L
aL19329L
aL19335L
aL19337L
aL19339L
aL19341L
aL19343L
aL19345L
aL19347L
aL19349L
aL19351L
aL19353L
aL19359L
aL19361L
aL19398L
aL19401L
aL19403L
aL19404L
aL19405L
aL19406L
aL19407L
aL19408L
aL19409L
aL19410L
aL19411L
aL19412L
aL19413L
aL19414L
aL19415L
aL19416L
aL19417L
aL19418L
aL19419L
aL19420L
aL19421L
aL19422L
aL19461L
aL19463L
aL19470L
aL19500L
aL19534L
aL19535L
aL19536L
aL19537L
aL19538L
aL19539L
aL19540L
aL19547L
aL19548L
aL19549L
aL19550L
aL19551L
aL19553L
aL19554L
aL19555L
aL19556L
aL19658L
aL19660L
aL19663L
aL19684L
aL19685L
aL19686L
aL19687L
aL19688L
aL19689L
aL19690L
aL19691L
aL19692L
aL19693L
aL19694L
aL19695L
aL19696L
aL19697L
aL19698L
aL19699L
aL19700L
aL19719L
aL19720L
aL19721L
aL19722L
aL19723L
aL19724L
aL19725L
aL19726L
aL19727L
aL19739L
aL19744L
aL19745L
aL19759L
aL19760L
aL19761L
aL19766L
aL19767L
aL19806L
aL19808L
aL19810L
aL19812L
aL19814L
aL19921L
aL19922L
aL19923L
aL19925L
aL19927L
aL19929L
aL19931L
aL19933L
aL19935L
aL19937L
aL19939L
aL19942L
aL19944L
aL19946L
aL19948L
aL19950L
aL19952L
aL19962L
aL19964L
aL19966L
aL19968L
aL19970L
aL19972L
aL19974L
aL19976L
aL19978L
aL19980L
aL19982L
aL19984L
aL19986L
aL19988L
aL19990L
aL19992L
aL19994L
aL19996L
aL19998L
aL20000L
aL20002L
aL20004L
aL20006L
aL20008L
aL20010L
aL20012L
aL20014L
aL20016L
aL20018L
aL20020L
aL20022L
aL20024L
aL20028L
aL20030L
aL20032L
aL20034L
aL20036L
aL20038L
aL20040L
aL20043L
aL20045L
aL20047L
aL20049L
aL20051L
aL20053L
aL20055L
aL20057L
aL20059L
aL20060L
aL20061L
aL20062L
aL20063L
aL20064L
aL20065L
aL20066L
aL20069L
aL20070L
aL20110L
aL20114L
aL20115L
aL20116L
aL20121L
aL20124L
aL20125L
aL20138L
aL20157L
aL20158L
aL20159L
aL20160L
aL20161L
aL20171L
aL20172L
aL20175L
aL20183L
aL20184L
aL20185L
aL20186L
aL20187L
aL20188L
aL20189L
aL20190L
aL20199L
aL20201L
aL20203L
aL20205L
aL20207L
aL20209L
aL20210L
aL20211L
aL20212L
aL20213L
aL20214L
aL20216L
aL20218L
aL20220L
aL20222L
aL20224L
aL20226L
aL20228L
aL20230L
aL20232L
aL20234L
aL20236L
aL20238L
aL3373L
aL20240L
aL20242L
aL20244L
aL20246L
aL20248L
aL20250L
aL20252L
aL20254L
aL20260L
aL20262L
aL20264L
aL20280L
aL20306L
aL20307L
aL20308L
aL20312L
aL20314L
aL20315L
aL20327L
aL20342L
aL20343L
aL20345L
aL20347L
aL20349L
aL20351L
aL20353L
aL20358L
aL20371L
aL3397L
aL20405L
aL20406L
aL20408L
aL20409L
aL20410L
aL20411L
aL20412L
aL20413L
aL20414L
aL20415L
aL20416L
aL20417L
aL20418L
aL20419L
aL20420L
aL20421L
aL20423L
aL20424L
aL20425L
aL20433L
aL20443L
aL20444L
aL20446L
aL20448L
aL20450L
aL20452L
aL20454L
aL3409L
aL20494L
aL20495L
aL20498L
aL20499L
aL20500L
aL20501L
aL20502L
aL20503L
aL20504L
aL20505L
aL20506L
aL20507L
aL20508L
aL20509L
aL20514L
aL20524L
aL20525L
aL20526L
aL20527L
aL20528L
aL20530L
aL20531L
aL20532L
aL20533L
aL20539L
aL20555L
aL20557L
aL20559L
aL20561L
aL3427L
aL20565L
aL20567L
aL20569L
aL20573L
aL20575L
aL20579L
aL20589L
aL20591L
aL20595L
aL20599L
aL20611L
aL20613L
aL20617L
aL20619L
aL20621L
aL20623L
aL20625L
aL20627L
aL20629L
aL20631L
aL20633L
aL20635L
aL20637L
aL20639L
aL20641L
aL20700L
aL20701L
aL20702L
aL20703L
aL20721L
aL20723L
aL20725L
aL20727L
aL20729L
aL20731L
aL20733L
aL20735L
aL20737L
aL20739L
aL20741L
aL20743L
aL20747L
aL20751L
aL20753L
aL20755L
aL20757L
aL20759L
aL20761L
aL20763L
aL20765L
aL20767L
aL20769L
aL20771L
aL20773L
aL20775L
aL20777L
aL20779L
aL20781L
aL20783L
aL20785L
aL20787L
aL20789L
aL20791L
aL20793L
aL20795L
aL20797L
aL20799L
aL20805L
aL20817L
aL20819L
aL20821L
aL20823L
aL20825L
aL20827L
aL20829L
aL20831L
aL20833L
aL20835L
aL20837L
aL20839L
aL20841L
aL20843L
aL20845L
aL20847L
aL20849L
aL20851L
aL20853L
aL20855L
aL20857L
aL20859L
aL20861L
aL20863L
aL20865L
aL20867L
aL20869L
aL20871L
aL20873L
aL20875L
aL20877L
aL20879L
aL20881L
aL20883L
aL20885L
aL20887L
aL20889L
aL20893L
aL20895L
aL20913L
aL20915L
aL20917L
aL20919L
aL20921L
aL20923L
aL20925L
aL20927L
aL20929L
aL20941L
aL20945L
aL20947L
aL20949L
aL20951L
aL20953L
aL20955L
aL20957L
aL20959L
aL20961L
aL20963L
aL20965L
aL20967L
aL20969L
aL20971L
aL20973L
aL20975L
aL20977L
aL20979L
aL20981L
aL20983L
aL20985L
aL20987L
aL20989L
aL20991L
aL21009L
aL21010L
aL21011L
aL21013L
aL21017L
aL21018L
aL21019L
aL21021L
aL21023L
aL21025L
aL21026L
aL21027L
aL21028L
aL21029L
aL21035L
aL21037L
aL21038L
aL21039L
aL21041L
aL21059L
aL21071L
aL21073L
aL21074L
aL21075L
aL21077L
aL21078L
aL21079L
aL21080L
aL21081L
aL21082L
aL21084L
aL21085L
aL21087L
aL21088L
aL21089L
aL21096L
aL21097L
aL21194L
aL21196L
aL21198L
aL21200L
aL21202L
aL21204L
aL21210L
aL33440L
aL21212L
aL21214L
aL21216L
aL21218L
aL21220L
aL21222L
aL21224L
aL21226L
aL21228L
aL21230L
aL21232L
aL21234L
aL21236L
aL21238L
aL21256L
aL21258L
aL21260L
aL21262L
aL21264L
aL21266L
aL21268L
aL21270L
aL21272L
aL21274L
aL21276L
aL21278L
aL21280L
aL21282L
aL21284L
aL21286L
aL21288L
aL21290L
aL21292L
aL21294L
aL21296L
aL21298L
aL21300L
aL21302L
aL21320L
aL21322L
aL21324L
aL21326L
aL21328L
aL21330L
aL21332L
aL21334L
aL21336L
aL21338L
aL21340L
aL21342L
aL21344L
aL21346L
aL21348L
aL21350L
aL21352L
aL21354L
aL3559L
aL21356L
aL21358L
aL21360L
aL21362L
aL21364L
aL21366L
aL21368L
aL21370L
aL21374L
aL21376L
aL21380L
aL21384L
aL21386L
aL21388L
aL21390L
aL3565L
aL21392L
aL21394L
aL21396L
aL21398L
aL21400L
aL21402L
aL21404L
aL21406L
aL21408L
aL21410L
aL21412L
aL21414L
aL21416L
aL21418L
aL21420L
aL21422L
aL21424L
aL21426L
aL21428L
aL21430L
aL21450L
aL21470L
aL21472L
aL21474L
aL21476L
aL21478L
aL21480L
aL21482L
aL21484L
aL21486L
aL21488L
aL21491L
aL21493L
aL21498L
aL21500L
aL21504L
aL21506L
aL21508L
aL21510L
aL21512L
aL21523L
aL21525L
aL21534L
aL21540L
aL21542L
aL21551L
aL21553L
aL21555L
aL21568L
aL21569L
aL21570L
aL21571L
aL21572L
aL21573L
aL21574L
aL21575L
aL21576L
aL21577L
aL21579L
aL21580L
aL21581L
aL21582L
aL21583L
aL21584L
aL21585L
aL21586L
aL21587L
aL21588L
aL21589L
aL21590L
aL21591L
aL21592L
aL21593L
aL21594L
aL21595L
aL21596L
aL21603L
aL21606L
aL21610L
aL21611L
aL21628L
aL21638L
aL21640L
aL21666L
aL21667L
aL21668L
aL21718L
aL21719L
aL21720L
aL21721L
aL21722L
aL21723L
aL21724L
aL21725L
aL21726L
aL21727L
aL21728L
aL21729L
aL21730L
aL21731L
aL21732L
aL21733L
aL21740L
aL33459L
aL21789L
aL21790L
aL21791L
aL21802L
aL21803L
aL21817L
aL21819L
aL21841L
aL21853L
aL21855L
aL21857L
aL21867L
aL21888L
aL21889L
aL21890L
aL21894L
aL21896L
aL21898L
aL21900L
aL21902L
aL21904L
aL21906L
aL21908L
aL21910L
aL21912L
aL21914L
aL21918L
aL21920L
aL21922L
aL21924L
aL21926L
aL21928L
aL21931L
aL21935L
aL21937L
aL21939L
aL21947L
aL21949L
aL21953L
aL21955L
aL21957L
aL21959L
aL21961L
aL21963L
aL21965L
aL21967L
aL21969L
aL22043L
aL22107L
aL22108L
aL22109L
aL22110L
aL22111L
aL22112L
aL22113L
aL22114L
aL22115L
aL22116L
aL22117L
aL22118L
aL22119L
aL22120L
aL22121L
aL22122L
aL22123L
aL22124L
aL22125L
aL22126L
aL22127L
aL22128L
aL22129L
aL22130L
aL22133L
aL22134L
aL22135L
aL22136L
aL22137L
aL3691L
aL22175L
aL22177L
aL3703L
aL22227L
aL22228L
aL22229L
aL22242L
aL22291L
aL3721L
aL3727L
aL22428L
aL22430L
aL22436L
aL22440L
aL22442L
aL22444L
aL22446L
aL22448L
aL22452L
aL22453L
aL22456L
aL22460L
aL22464L
aL22466L
aL22468L
aL22470L
aL22474L
aL22534L
aL22535L
aL22536L
aL22542L
aL22544L
aL22546L
aL22548L
aL22551L
aL22552L
aL22553L
aL22555L
aL22557L
aL22559L
aL22567L
aL22568L
aL22570L
aL22571L
aL22572L
aL22576L
aL22578L
aL22609L
aL22611L
aL22613L
aL22615L
aL22617L
aL22619L
aL22621L
aL22623L
aL22634L
aL3775L
aL22715L
aL22760L
aL22761L
aL22765L
aL22766L
aL22778L
aL22782L
aL22806L
aL22807L
aL22808L
aL22809L
aL22852L
aL22853L
aL22875L
aL22877L
aL22879L
aL22889L
aL22891L
aL22893L
aL22895L
aL22897L
aL22899L
aL22905L
aL22907L
aL22909L
aL22917L
aL22919L
aL22927L
aL22929L
aL22931L
aL22933L
aL22935L
aL22937L
aL22939L
aL22941L
aL22943L
aL22945L
aL22949L
aL22951L
aL22953L
aL22961L
aL22963L
aL22965L
aL22967L
aL22969L
aL22971L
aL22973L
aL22975L
aL22977L
aL22979L
aL22981L
aL22983L
aL22985L
aL22987L
aL22989L
aL22991L
aL22993L
aL22995L
aL22997L
aL22999L
aL23001L
aL23003L
aL23005L
aL23007L
aL23009L
aL23011L
aL23013L
aL23015L
aL23017L
aL23019L
aL23021L
aL23023L
aL23025L
aL23027L
aL23029L
aL23031L
aL23033L
aL23035L
aL23037L
aL23039L
aL23041L
aL23043L
aL23045L
aL23047L
aL23049L
aL23051L
aL23053L
aL23055L
aL23056L
aL23057L
aL23058L
aL23059L
aL23060L
aL23061L
aL23062L
aL23069L
aL23071L
aL23073L
aL23075L
aL23077L
aL23079L
aL23081L
aL23083L
aL23085L
aL23087L
aL23089L
aL23091L
aL23093L
aL23095L
aL23097L
aL23099L
aL23101L
aL23103L
aL23105L
aL23107L
aL23109L
aL23111L
aL23113L
aL23115L
aL23117L
aL23119L
aL23121L
aL23123L
aL23124L
aL23128L
aL23129L
aL23130L
aL23131L
aL23132L
aL23133L
aL23134L
aL23135L
aL23136L
aL23137L
aL23138L
aL23139L
aL23140L
aL23141L
aL23142L
aL23143L
aL23144L
aL23145L
aL23146L
aL23147L
aL23149L
aL23150L
aL23151L
aL23152L
aL23153L
aL23154L
aL23156L
aL23157L
aL23158L
aL23159L
aL23160L
aL23161L
aL23162L
aL23163L
aL23164L
aL23165L
aL23166L
aL23167L
aL23168L
aL23169L
aL23170L
aL23171L
aL23172L
aL23173L
aL23174L
aL23175L
aL23176L
aL23177L
aL23178L
aL23179L
aL23180L
aL23181L
aL23182L
aL23183L
aL23184L
aL23185L
aL23186L
aL23187L
aL23416L
aL23418L
aL23473L
aL23474L
aL23506L
aL23510L
aL23512L
aL23523L
aL23524L
aL23525L
aL23526L
aL23527L
aL23528L
aL23533L
aL23536L
aL23559L
aL23560L
aL23561L
aL23562L
aL23563L
aL23564L
aL23566L
aL23594L
aL23606L
aL23618L
aL23659L
aL23674L
aL23702L
aL23705L
aL23707L
aL23709L
aL23711L
aL23713L
aL23715L
aL23717L
aL23719L
aL23721L
aL23723L
aL23725L
aL23727L
aL23729L
aL23730L
aL23731L
aL23735L
aL23757L
aL23758L
aL23774L
aL23783L
aL23785L
aL23787L
aL23789L
aL23793L
aL23795L
aL23797L
aL23799L
aL23801L
aL23803L
aL23805L
aL23807L
aL23809L
aL23811L
aL23813L
aL23815L
aL23817L
aL23819L
aL23821L
aL23824L
aL23829L
aL23836L
aL23840L
aL23842L
aL23844L
aL23850L
aL23854L
aL23856L
aL23866L
aL23868L
aL23894L
aL23896L
aL23900L
aL23902L
aL23911L
aL23914L
aL23915L
aL23916L
aL23917L
aL23918L
aL23919L
aL23920L
aL23950L
aL23953L
aL805L
aL24241L
aL24242L
aL24268L
aL24270L
aL24283L
aL24305L
aL24311L
aL24312L
aL24313L
aL24314L
aL33332L
aL24348L
aL24395L
aL24417L
aL24427L
aL24438L
aL24443L
aL24445L
aL24471L
aL24473L
aL24475L
aL24477L
aL24478L
aL24479L
aL24483L
aL24484L
aL24486L
aL24488L
aL24490L
aL24492L
aL24493L
aL24494L
aL24495L
aL24497L
aL24499L
aL24501L
aL24503L
aL24505L
aL24507L
aL24509L
aL24511L
aL24513L
aL24515L
aL24517L
aL24519L
aL24521L
aL24523L
aL24525L
aL24527L
aL24529L
aL24531L
aL24533L
aL24535L
aL24537L
aL24539L
aL24541L
aL24545L
aL24547L
aL24552L
aL24554L
aL24556L
aL24558L
aL24559L
aL24560L
aL24561L
aL24562L
aL24563L
aL3655L
aL24567L
aL24568L
aL24569L
aL24571L
aL24572L
aL24574L
aL24575L
aL24592L
aL24593L
aL24594L
aL24595L
aL24596L
aL24597L
aL24606L
aL24613L
aL24624L
aL24625L
aL24632L
aL24636L
aL24637L
aL24638L
aL24639L
aL24640L
aL24641L
aL24642L
aL24644L
aL24646L
aL24653L
aL24654L
aL24655L
aL24656L
aL24657L
aL24658L
aL24659L
aL24660L
aL24663L
aL24669L
aL24684L
aL24688L
aL24689L
aL24690L
aL24692L
aL24693L
aL24694L
aL24695L
aL24696L
aL24697L
aL24698L
aL24699L
aL24700L
aL24701L
aL24702L
aL24703L
aL24764L
aL20563L
aL25233L
aL25235L
aL25237L
aL25239L
aL25240L
aL25241L
aL25242L
aL25252L
aL25266L
aL25268L
aL25270L
aL25271L
aL25273L
aL25274L
aL25275L
aL25276L
aL25277L
aL25278L
aL25279L
aL25280L
aL25283L
aL25291L
aL25293L
aL25294L
aL25298L
aL25299L
aL25302L
aL25305L
aL25331L
aL25332L
aL25333L
aL25335L
aL25337L
aL25341L
aL25349L
aL25530L
aL25538L
aL25540L
aL25542L
aL25544L
aL25545L
aL25546L
aL25547L
aL25548L
aL25553L
aL25554L
aL25555L
aL25556L
aL25561L
aL25563L
aL25565L
aL25567L
aL25569L
aL25571L
aL25588L
aL25589L
aL25590L
aL25591L
aL25592L
aL25593L
aL25594L
aL25595L
aL25596L
aL25597L
aL25598L
aL25599L
aL25600L
aL25601L
aL25602L
aL25603L
aL25604L
aL25605L
aL25606L
aL25607L
aL25608L
aL25609L
aL25610L
aL25611L
aL25612L
aL25613L
aL25614L
aL25615L
aL25616L
aL25617L
aL25618L
aL25619L
aL25620L
aL25621L
aL25622L
aL25623L
aL25624L
aL25625L
aL25707L
aL25709L
aL25711L
aL25713L
aL25715L
aL25718L
aL25719L
aL25736L
aL25739L
aL25810L
aL25811L
aL25812L
aL25821L
aL25851L
aL25853L
aL25855L
aL25857L
aL25861L
aL25863L
aL25867L
aL25868L
aL25887L
aL25888L
aL25890L
aL25892L
aL25894L
aL25896L
aL25898L
aL25900L
aL25902L
aL25906L
aL25908L
aL25910L
aL25912L
aL25914L
aL25916L
aL25918L
aL25920L
aL25924L
aL25928L
aL25932L
aL25934L
aL25936L
aL25948L
aL25950L
aL25952L
aL25954L
aL25956L
aL25968L
aL25970L
aL25974L
aL25978L
aL25980L
aL25996L
aL25998L
aL26000L
aL26002L
aL26006L
aL26008L
aL26016L
aL26020L
aL26022L
aL26026L
aL26028L
aL26030L
aL26038L
aL26040L
aL26042L
aL26046L
aL26048L
aL26056L
aL26058L
aL26060L
aL26062L
aL26066L
aL26070L
aL26072L
aL26076L
aL26078L
aL26080L
aL26082L
aL26084L
aL26086L
aL26088L
aL26090L
aL26096L
aL26100L
aL26102L
aL26104L
aL26108L
aL26110L
aL26112L
aL26224L
aL26252L
aL26253L
aL26254L
aL26255L
aL26256L
aL26257L
aL26258L
aL26259L
aL26260L
aL26261L
aL26286L
aL26288L
aL26290L
aL26292L
aL26294L
aL26296L
aL26298L
aL26300L
aL26302L
aL26304L
aL26306L
aL26310L
aL26312L
aL26318L
aL26320L
aL26322L
aL26324L
aL26328L
aL26330L
aL26338L
aL26342L
aL26344L
aL26346L
aL26348L
aL26350L
aL26354L
aL26358L
aL26364L
aL26366L
aL26368L
aL26370L
aL26372L
aL26374L
aL26376L
aL26378L
aL26380L
aL26384L
aL26386L
aL26388L
aL26390L
aL26394L
aL26396L
aL26398L
aL26400L
aL26404L
aL26406L
aL26412L
aL26414L
aL26416L
aL26418L
aL26420L
aL26424L
aL26428L
aL26430L
aL26432L
aL26434L
aL26436L
aL26438L
aL26440L
aL26442L
aL26444L
aL26446L
aL26448L
aL26450L
aL26452L
aL26597L
aL26599L
aL26601L
aL26603L
aL26762L
aL26840L
aL26842L
aL26888L
aL26890L
aL26892L
aL26902L
aL26912L
aL26913L
aL26914L
aL26929L
aL26931L
aL27064L
aL27065L
aL27068L
aL27070L
aL27071L
aL27072L
aL27073L
aL27074L
aL27075L
aL27076L
aL27077L
aL27078L
aL27079L
aL27080L
aL27081L
aL27082L
aL27084L
aL27085L
aL27087L
aL27088L
aL27089L
aL27090L
aL27093L
aL27096L
aL27097L
aL27098L
aL27099L
aL27100L
aL27102L
aL27103L
aL27104L
aL27105L
aL27106L
aL27107L
aL27108L
aL27109L
aL27110L
aL27112L
aL27113L
aL27114L
aL27115L
aL27116L
aL27117L
aL27118L
aL27119L
aL27121L
aL27122L
aL27123L
aL27124L
aL27126L
aL27127L
aL27128L
aL27130L
aL27131L
aL27142L
aL27143L
aL27147L
aL27148L
aL27149L
aL27150L
aL27151L
aL27167L
aL27169L
aL27171L
aL27174L
aL27175L
aL27176L
aL27177L
aL27178L
aL27179L
aL27181L
aL27182L
aL27184L
aL27185L
aL27186L
aL27187L
aL27188L
aL27190L
aL27191L
aL27192L
aL27193L
aL27194L
aL27195L
aL27196L
aL27197L
aL27198L
aL27224L
aL27226L
aL27227L
aL27229L
aL27230L
aL27231L
aL27232L
aL27233L
aL27235L
aL27236L
aL27237L
aL27238L
aL27239L
aL27240L
aL27245L
aL27250L
aL27251L
aL27252L
aL27254L
aL27256L
aL27257L
aL27258L
aL27259L
aL27260L
aL27309L
aL27313L
aL27315L
aL27317L
aL27319L
aL27321L
aL27323L
aL27325L
aL27327L
aL27329L
aL27331L
aL27333L
aL27335L
aL27337L
aL27339L
aL27341L
aL27343L
aL27345L
aL27347L
aL27349L
aL27351L
aL27353L
aL27355L
aL27357L
aL27359L
aL27361L
aL27363L
aL27365L
aL27367L
aL27369L
aL27371L
aL27373L
aL27375L
aL27377L
aL27379L
aL27381L
aL27383L
aL27385L
aL27387L
aL27389L
aL27391L
aL27393L
aL27395L
aL27397L
aL27399L
aL27401L
aL27403L
aL27405L
aL27407L
aL27409L
aL27411L
aL27413L
aL27415L
aL27417L
aL27419L
aL27421L
aL27423L
aL27425L
aL27427L
aL27429L
aL27431L
aL27433L
aL27435L
aL27437L
aL27439L
aL27441L
aL27443L
aL27445L
aL27447L
aL27449L
aL27451L
aL27453L
aL27455L
aL27471L
aL27483L
aL27489L
aL27495L
aL27501L
aL27519L
aL27530L
aL27532L
aL27533L
aL27535L
aL27536L
aL27538L
aL27539L
aL27540L
aL27544L
aL27545L
aL27547L
aL27548L
aL27550L
aL27556L
aL27559L
aL27562L
aL27565L
aL27569L
aL27570L
aL27573L
aL27574L
aL27576L
aL27577L
aL27579L
aL27582L
aL27585L
aL27589L
aL27591L
aL27594L
aL27597L
aL27598L
aL27600L
aL27603L
aL27607L
aL27609L
aL27610L
aL27612L
aL27615L
aL27616L
aL27618L
aL27619L
aL27624L
aL27627L
aL27630L
aL27636L
aL27638L
aL27640L
aL27643L
aL27647L
aL27649L
aL27652L
aL27655L
aL27672L
aL27673L
aL27674L
aL27675L
aL27678L
aL27774L
aL27775L
aL27778L
aL27779L
aL27780L
aL27784L
aL27786L
aL27788L
aL27790L
aL27855L
aL27858L
aL27897L
aL27902L
aL27904L
aL27906L
aL27911L
aL27912L
aL27913L
aL27914L
aL27916L
aL27917L
aL27918L
aL27919L
aL27920L
aL27921L
aL27922L
aL27923L
aL27924L
aL27925L
aL27930L
aL27932L
aL27934L
aL27935L
aL27936L
aL27951L
aL28073L
aL28164L
aL28197L
aL28199L
aL28201L
aL28203L
aL28205L
aL28207L
aL28209L
aL28211L
aL28213L
aL28215L
aL28231L
aL28236L
aL28237L
aL28238L
aL28266L
aL28268L
aL28270L
aL28272L
aL28274L
aL28276L
aL28278L
aL28280L
aL28282L
aL28284L
aL28286L
aL28288L
aL28290L
aL28294L
aL28296L
aL28298L
aL28300L
aL28302L
aL28304L
aL28306L
aL28308L
aL28324L
aL28326L
aL28328L
aL28332L
aL28334L
aL28336L
aL28351L
aL28352L
aL28353L
aL28361L
aL28362L
aL28363L
aL28364L
aL28365L
aL28366L
aL28367L
aL28374L
aL28375L
aL28377L
aL28379L
aL28381L
aL28383L
aL28385L
aL28387L
aL28388L
aL28390L
aL28391L
aL28393L
aL28394L
aL28397L
aL28401L
aL28402L
aL28403L
aL28405L
aL28408L
aL28409L
aL28410L
aL28412L
aL28413L
aL28415L
aL28416L
aL28417L
aL28420L
aL28422L
aL28423L
aL28424L
aL28426L
aL28427L
aL28433L
aL28434L
aL28435L
aL28437L
aL28438L
aL28439L
aL28440L
aL28443L
aL28514L
aL28520L
aL28530L
aL28532L
aL28534L
aL28544L
aL28563L
aL28576L
aL28578L
aL28583L
aL28585L
aL28606L
aL28607L
aL28609L
aL28615L
aL28646L
aL28647L
aL28652L
aL28654L
aL28656L
aL28659L
aL28661L
aL28665L
aL28667L
aL28668L
aL28670L
aL28672L
aL28674L
aL28676L
aL28678L
aL28680L
aL28682L
aL28684L
aL28689L
aL28693L
aL28694L
aL28695L
aL28696L
aL28697L
aL28698L
aL28699L
aL28700L
aL28701L
aL28710L
aL28729L
aL28731L
aL28733L
aL28735L
aL28737L
aL28740L
aL28742L
aL28744L
aL28746L
aL28752L
aL28754L
aL28756L
aL28758L
aL28788L
aL28790L
aL28791L
aL28792L
aL28793L
aL28795L
aL28796L
aL28797L
aL28798L
aL28799L
aL28800L
aL28801L
aL28802L
aL28803L
aL28804L
aL28805L
aL28807L
aL28808L
aL28809L
aL28810L
aL28811L
aL28812L
aL28813L
aL28819L
aL28840L
aL28844L
aL28846L
aL28848L
aL28850L
aL28879L
aL28880L
aL28974L
aL28999L
aL29001L
aL29003L
aL29004L
aL29005L
aL29007L
aL29009L
aL29011L
aL29013L
aL29015L
aL29029L
aL29039L
aL29041L
aL29049L
aL29051L
aL29061L
aL29067L
aL29069L
aL29071L
aL29073L
aL29075L
aL29077L
aL29079L
aL29081L
aL29083L
aL29087L
aL29089L
aL29091L
aL29248L
aL29266L
aL29336L
aL29337L
aL29340L
aL29344L
aL29613L
aL29616L
aL29618L
aL29620L
aL29622L
aL29637L
aL29659L
aL29660L
aL29661L
aL29662L
aL29663L
aL29668L
aL29964L
aL29965L
aL29966L
aL29967L
aL29969L
aL29970L
aL29971L
aL29972L
aL29974L
aL29975L
aL29976L
aL29977L
aL29979L
aL29980L
aL29981L
aL29982L
aL29984L
aL29986L
aL29988L
aL29990L
aL29992L
aL29994L
aL29996L
aL30002L
aL30008L
aL30013L
aL30018L
aL30019L
aL30021L
aL30022L
aL30024L
aL30028L
aL30036L
aL30038L
aL30040L
aL30042L
aL30046L
aL30048L
aL30050L
aL30052L
aL30056L
aL30058L
aL30060L
aL30062L
aL30066L
aL30068L
aL30070L
aL30072L
aL30076L
aL30078L
aL30080L
aL30082L
aL30086L
aL30088L
aL30090L
aL30092L
aL30096L
aL30098L
aL30100L
aL30102L
aL30106L
aL30108L
aL30110L
aL30112L
aL30117L
aL30118L
aL30119L
aL30120L
aL30122L
aL30123L
aL30124L
aL30125L
aL30127L
aL30128L
aL30129L
aL30130L
aL30132L
aL30133L
aL30134L
aL30135L
aL30139L
aL30141L
aL30143L
aL30145L
aL30149L
aL30151L
aL30153L
aL30155L
aL30159L
aL30161L
aL30163L
aL30165L
aL30169L
aL30171L
aL30173L
aL30175L
aL30187L
aL30221L
aL30222L
aL30248L
aL30251L
aL30252L
aL30254L
aL30258L
aL30259L
aL30268L
aL30269L
aL30270L
aL30271L
aL30303L
aL30304L
aL30305L
aL30306L
aL30307L
aL30308L
aL30309L
aL30310L
aL30311L
aL30324L
aL30325L
aL30326L
aL30327L
aL30344L
aL30345L
aL30346L
aL30348L
aL30349L
aL30351L
aL30352L
aL30368L
aL30370L
aL30371L
aL30372L
aL30373L
aL30374L
aL30375L
aL30376L
aL30377L
aL30378L
aL30382L
aL30383L
aL30384L
aL30385L
aL30386L
aL30389L
aL30464L
aL30466L
aL30470L
aL30474L
aL30476L
aL30478L
aL30486L
aL30488L
aL30532L
aL30536L
aL30537L
aL30538L
aL30539L
aL30540L
aL30541L
aL30542L
aL30543L
aL30544L
aL30545L
aL30546L
aL30547L
aL30548L
aL30549L
aL30550L
aL30551L
aL30552L
aL30553L
aL30554L
aL30558L
aL30562L
aL30582L
aL30586L
aL30588L
aL30599L
aL30600L
aL30605L
aL30614L
aL30615L
aL30618L
aL30628L
aL30632L
aL30633L
aL30650L
aL30651L
aL30652L
aL30653L
aL30655L
aL30656L
aL30744L
aL30745L
aL30746L
aL30747L
aL30752L
aL30753L
aL30754L
aL30788L
aL30832L
aL30834L
aL30836L
aL30842L
aL30987L
aL30993L
aL30994L
aL30997L
aL30999L
aL31005L
aL31007L
aL31009L
aL31011L
aL31013L
aL31015L
aL31017L
aL31019L
aL31021L
aL31023L
aL31025L
aL31027L
aL31029L
aL31031L
aL31033L
aL31035L
aL31039L
aL31041L
aL31045L
aL31047L
aL31049L
aL31051L
aL31053L
aL31055L
aL31057L
aL31059L
aL31061L
aL31063L
aL31065L
aL31067L
aL31068L
aL31069L
aL31071L
aL31073L
aL31075L
aL31076L
aL31077L
aL31079L
aL31083L
aL31085L
aL31089L
aL31091L
aL31105L
aL31107L
aL31111L
aL31113L
aL31117L
aL31119L
aL31121L
aL31123L
aL31125L
aL31127L
aL31129L
aL31131L
aL31139L
aL31141L
aL31143L
aL31153L
aL31155L
aL31159L
aL31161L
aL31165L
aL31167L
aL31171L
aL31173L
aL31175L
aL31177L
aL31179L
aL31183L
aL31185L
aL31189L
aL31191L
aL31195L
aL31197L
aL31201L
aL31203L
aL31207L
aL31209L
aL31213L
aL31215L
aL31220L
aL31222L
aL31226L
aL31228L
aL31232L
aL31238L
aL31240L
aL31246L
aL31250L
aL31256L
aL31262L
aL31264L
aL31274L
aL31276L
aL31280L
aL31282L
aL31286L
aL31288L
aL31294L
aL31300L
aL31306L
aL31312L
aL31322L
aL31324L
aL31328L
aL31330L
aL31334L
aL31336L
aL31346L
aL31348L
aL31358L
aL31360L
aL31362L
aL31364L
aL31366L
aL31370L
aL31372L
aL31374L
aL31375L
aL31376L
aL31378L
aL31380L
aL31382L
aL31384L
aL31388L
aL31390L
aL31394L
aL31396L
aL31400L
aL31402L
aL31406L
aL31408L
aL31410L
aL31412L
aL31414L
aL31416L
aL31420L
aL31422L
aL31430L
aL31432L
aL31438L
aL31442L
aL31444L
aL31446L
aL31450L
aL31454L
aL31456L
aL31458L
aL31460L
aL31462L
aL31464L
aL31466L
aL31468L
aL31474L
aL31478L
aL31480L
aL31482L
aL31486L
aL31490L
aL31498L
aL31504L
aL31506L
aL31514L
aL31516L
aL31518L
aL31520L
aL31526L
aL31528L
aL31532L
aL31534L
aL31536L
aL31538L
aL31540L
aL31544L
aL31546L
aL31550L
aL31552L
aL31562L
aL31564L
aL31566L
aL31572L
aL31576L
aL31580L
aL31582L
aL31584L
aL31586L
aL31588L
aL31592L
aL31594L
aL31598L
aL31600L
aL31602L
aL31606L
aL31608L
aL31610L
aL31616L
aL31620L
aL31622L
aL31628L
aL31632L
aL31634L
aL31636L
aL31640L
aL31644L
aL31646L
aL31650L
aL31652L
aL31656L
aL31658L
aL31662L
aL31664L
aL31668L
aL31670L
aL31674L
aL31676L
aL31680L
aL31682L
aL31686L
aL31688L
aL31692L
aL31694L
aL31698L
aL31700L
aL31704L
aL31710L
aL31712L
aL31716L
aL31718L
aL31720L
aL31722L
aL31724L
aL31726L
aL31728L
aL31730L
aL31736L
aL31740L
aL31742L
aL31744L
aL31746L
aL31748L
aL31752L
aL31754L
aL31756L
aL31758L
aL31760L
aL31764L
aL31766L
aL31770L
aL31772L
aL31776L
aL31778L
aL31784L
aL31788L
aL31790L
aL31794L
aL31796L
aL31802L
aL31810L
aL31812L
aL31816L
aL31818L
aL31822L
aL31824L
aL31864L
aL31866L
aL31870L
aL31872L
aL31874L
aL31876L
aL31878L
aL31880L
aL31882L
aL31884L
aL31886L
aL31888L
aL31890L
aL31892L
aL31894L
aL31900L
aL31902L
aL31904L
aL31908L
aL31918L
aL31922L
aL31924L
aL31926L
aL31928L
aL31930L
aL31932L
aL31936L
aL31942L
aL31944L
aL31946L
aL31948L
aL31952L
aL31954L
aL31955L
aL31956L
aL31958L
aL31959L
aL31962L
aL31963L
aL31964L
aL31966L
aL31969L
aL31970L
aL31971L
aL31972L
aL31973L
aL31974L
aL31975L
aL31976L
aL31977L
aL31978L
aL31979L
aL31982L
aL31990L
aL31998L
aL32006L
aL32014L
aL32025L
aL32027L
aL32029L
aL32035L
aL32039L
aL32043L
aL32047L
aL32049L
aL32051L
aL32053L
aL32059L
aL32063L
aL32069L
aL32071L
aL32075L
aL32083L
aL32087L
aL32089L
aL32091L
aL32093L
aL32095L
aL32099L
aL32101L
aL32102L
aL32103L
aL32104L
aL32105L
aL32107L
aL32108L
aL32109L
aL32110L
aL32111L
aL32112L
aL32113L
aL32115L
aL32116L
aL32117L
aL32118L
aL32119L
aL32120L
aL32121L
aL32122L
aL32123L
aL32124L
aL32125L
aL32207L
aL32226L
aL32245L
aL32246L
aL32248L
aL32250L
aL32254L
aL32255L
aL32260L
aL32262L
aL32305L
aL32307L
aL32309L
aL32311L
aL32325L
aL32339L
aL32340L
aL32341L
aL32342L
aL32344L
aL32345L
aL32414L
aL32422L
aL32435L
aL32436L
aL32438L
aL32440L
aL32442L
aL32444L
aL32458L
a.